target datalayout = "e-m:e-p270:32:32-p271:32:32-p272:64:64-i64:64-i128:128-f80:128-n8:16:32:64-S128"
target triple = "x86_64-pc-linux-gnu"

%struct.location = type { i32, i32 }
%struct.block = type { ptr, ptr }
%struct.inst = type { ptr, ptr, i32, %struct.anon, ptr, %struct.location, ptr, ptr, i32, i32, i32, i32, %struct.block, %struct.block, ptr, i32 }
%struct.anon = type { i16, ptr, %struct.jv, ptr }
%struct.jv = type { i8, i8, i16, i32, %union.anon }
%union.anon = type { ptr }

; Function Attrs: nounwind uwtable
define internal void @inst_join(ptr noundef %0, ptr noundef %1) #0 {
  %3 = alloca ptr, align 8
  %4 = alloca ptr, align 8
  store ptr %0, ptr %3, align 8, !tbaa !13
  store ptr %1, ptr %4, align 8, !tbaa !13
  %5 = load ptr, ptr %4, align 8, !tbaa !13
  %6 = load ptr, ptr %3, align 8, !tbaa !13
  %7 = getelementptr inbounds nuw %struct.inst, ptr %6, i32 0, i32 0
  store ptr %5, ptr %7, align 8, !tbaa !28
  %8 = load ptr, ptr %3, align 8, !tbaa !13
  %9 = load ptr, ptr %4, align 8, !tbaa !13
  %10 = getelementptr inbounds nuw %struct.inst, ptr %9, i32 0, i32 1
  store ptr %8, ptr %10, align 8, !tbaa !32
  ret void
}

; Function Attrs: nounwind uwtable
define dso_local void @block_append(ptr noundef %0, ptr %1, ptr %2) #0 {
  %4 = alloca %struct.block, align 8
  %5 = alloca ptr, align 8
  %6 = getelementptr inbounds nuw { ptr, ptr }, ptr %4, i32 0, i32 0
  store ptr %1, ptr %6, align 8
  %7 = getelementptr inbounds nuw { ptr, ptr }, ptr %4, i32 0, i32 1
  store ptr %2, ptr %7, align 8
  store ptr %0, ptr %5, align 8, !tbaa !46
  %8 = getelementptr inbounds nuw %struct.block, ptr %4, i32 0, i32 0
  %9 = load ptr, ptr %8, align 8, !tbaa !4
  %10 = icmp ne ptr %9, null
  br i1 %10, label %11, label %32

11:                                               ; preds = %3
  %12 = load ptr, ptr %5, align 8, !tbaa !46
  %13 = getelementptr inbounds nuw %struct.block, ptr %12, i32 0, i32 1
  %14 = load ptr, ptr %13, align 8, !tbaa !10
  %15 = icmp ne ptr %14, null
  br i1 %15, label %16, label %22

16:                                               ; preds = %11
  %17 = load ptr, ptr %5, align 8, !tbaa !46
  %18 = getelementptr inbounds nuw %struct.block, ptr %17, i32 0, i32 1
  %19 = load ptr, ptr %18, align 8, !tbaa !10
  %20 = getelementptr inbounds nuw %struct.block, ptr %4, i32 0, i32 0
  %21 = load ptr, ptr %20, align 8, !tbaa !4
  call void @inst_join(ptr noundef %19, ptr noundef %21)
  br label %27

22:                                               ; preds = %11
  %23 = getelementptr inbounds nuw %struct.block, ptr %4, i32 0, i32 0
  %24 = load ptr, ptr %23, align 8, !tbaa !4
  %25 = load ptr, ptr %5, align 8, !tbaa !46
  %26 = getelementptr inbounds nuw %struct.block, ptr %25, i32 0, i32 0
  store ptr %24, ptr %26, align 8, !tbaa !4
  br label %27

27:                                               ; preds = %22, %16
  %28 = getelementptr inbounds nuw %struct.block, ptr %4, i32 0, i32 1
  %29 = load ptr, ptr %28, align 8, !tbaa !10
  %30 = load ptr, ptr %5, align 8, !tbaa !46
  %31 = getelementptr inbounds nuw %struct.block, ptr %30, i32 0, i32 1
  store ptr %29, ptr %31, align 8, !tbaa !10
  br label %32

32:                                               ; preds = %27, %3
  ret void
}

; Function Attrs: nounwind uwtable
define dso_local { ptr, ptr } @block_join(ptr %0, ptr %1, ptr %2, ptr %3) #0 {
  %5 = alloca %struct.block, align 8
  %6 = alloca %struct.block, align 8
  %7 = alloca %struct.block, align 8
  %8 = getelementptr inbounds nuw { ptr, ptr }, ptr %6, i32 0, i32 0
  store ptr %0, ptr %8, align 8
  %9 = getelementptr inbounds nuw { ptr, ptr }, ptr %6, i32 0, i32 1
  store ptr %1, ptr %9, align 8
  %10 = getelementptr inbounds nuw { ptr, ptr }, ptr %7, i32 0, i32 0
  store ptr %2, ptr %10, align 8
  %11 = getelementptr inbounds nuw { ptr, ptr }, ptr %7, i32 0, i32 1
  store ptr %3, ptr %11, align 8
  call void @llvm.memcpy.p0.p0.i64(ptr align 8 %5, ptr align 8 %6, i64 16, i1 false), !tbaa.struct !31
  %12 = getelementptr inbounds nuw { ptr, ptr }, ptr %7, i32 0, i32 0
  %13 = load ptr, ptr %12, align 8
  %14 = getelementptr inbounds nuw { ptr, ptr }, ptr %7, i32 0, i32 1
  %15 = load ptr, ptr %14, align 8
  call void @block_append(ptr noundef %5, ptr %13, ptr %15)
  %16 = load { ptr, ptr }, ptr %5, align 8
  ret { ptr, ptr } %16
}