; Function Attrs: mustprogress nofree norecurse nosync nounwind willreturn memory(argmem: write) uwtable
define dso_local { ptr, ptr } @block_join(ptr %0, ptr %1, ptr %2, ptr %3) local_unnamed_addr #8 {
  %.not.i = icmp eq ptr %2, null
  br i1 %.not.i, label %block_append.exit, label %5

5:                                                ; preds = %4
  %.not7.i = icmp eq ptr %1, null
  br i1 %.not7.i, label %block_append.exit, label %6

6:                                                ; preds = %5
  store ptr %2, ptr %1, align 8, !tbaa !22
  %7 = getelementptr inbounds nuw i8, ptr %2, i64 8
  store ptr %1, ptr %7, align 8, !tbaa !34
  br label %block_append.exit

block_append.exit:                                ; preds = %6, %5, %4
  %.sroa.3.0 = phi ptr [ %1, %4 ], [ %3, %5 ], [ %3, %6 ]
  %.sroa.0.1 = phi ptr [ %0, %4 ], [ %2, %5 ], [ %0, %6 ]
  %.fca.0.insert = insertvalue { ptr, ptr } poison, ptr %.sroa.0.1, 0
  %.fca.1.insert = insertvalue { ptr, ptr } %.fca.0.insert, ptr %.sroa.3.0, 1
  ret { ptr, ptr } %.fca.1.insert
}